; Function Attrs: mustprogress nofree norecurse nosync nounwind willreturn memory(read, argmem: readwrite, inaccessiblemem: none) uwtable
define noundef zeroext i16 @_ZN7RawRead4Get2Ev(ptr noundef nonnull align 8 captures(none) dereferenceable(64) %0) local_unnamed_addr #4 align 2 {
  %2 = getelementptr inbounds nuw i8, ptr %0, i64 48
  %3 = load i64, ptr %2, align 8, !tbaa !21
  %4 = add i64 %3, 1
  %5 = getelementptr inbounds nuw i8, ptr %0, i64 40
  %6 = load i64, ptr %5, align 8, !tbaa !15
  %7 = icmp ult i64 %4, %6
  br i1 %7, label %8, label %19

8:                                                ; preds = %1
  %9 = load ptr, ptr %0, align 8, !tbaa !17
  %10 = getelementptr inbounds nuw i8, ptr %9, i64 %3
  %11 = load i8, ptr %10, align 1, !tbaa !22
  %12 = zext i8 %11 to i16
  %13 = getelementptr inbounds nuw i8, ptr %9, i64 %4
  %14 = load i8, ptr %13, align 1, !tbaa !22
  %15 = zext i8 %14 to i16
  %16 = shl nuw i16 %15, 8
  %17 = or disjoint i16 %16, %12
  %18 = add i64 %3, 2
  store i64 %18, ptr %2, align 8, !tbaa !21
  br label %19

19:                                               ; preds = %1, %8
  %.0 = phi i16 [ %17, %8 ], [ 0, %1 ]
  ret i16 %.0
}